; Function Attrs: mustprogress nounwind willreturn uwtable
define void @PMIx_Device_distance_destruct(ptr noundef readonly captures(none) %0) local_unnamed_addr #16 {
  %2 = load ptr, ptr %0, align 8, !tbaa !46
  %.not.i = icmp eq ptr %2, null
  br i1 %.not.i, label %4, label %3

3:                                                ; preds = %1
  tail call void @free(ptr noundef nonnull %2) #44
  br label %4

4:                                                ; preds = %3, %1
  %5 = getelementptr inbounds nuw i8, ptr %0, i64 8
  %6 = load ptr, ptr %5, align 8, !tbaa !48
  %.not7.i = icmp eq ptr %6, null
  br i1 %.not7.i, label %pmix_bfrops_base_tma_device_distance_destruct.exit, label %7

7:                                                ; preds = %4
  tail call void @free(ptr noundef nonnull %6) #44
  br label %pmix_bfrops_base_tma_device_distance_destruct.exit

pmix_bfrops_base_tma_device_distance_destruct.exit: ; preds = %4, %7
  ret void
}